; Function Attrs: nounwind uwtable
define internal fastcc void @travNodes(ptr noundef %0, ptr noundef %1, ptr noundef readonly captures(none) %2) unnamed_addr #0 {
  %4 = load ptr, ptr %0, align 8, !tbaa !74
  %5 = tail call ptr @agfstnode(ptr noundef %4) #24
  %.not10 = icmp eq ptr %5, null
  br i1 %.not10, label %._crit_edge, label %.lr.ph

.lr.ph:                                           ; preds = %3
  %6 = getelementptr inbounds nuw i8, ptr %0, i64 32
  %7 = getelementptr inbounds nuw i8, ptr %2, i64 16
  %8 = getelementptr inbounds nuw i8, ptr %2, i64 32
  %9 = getelementptr inbounds nuw i8, ptr %0, i64 16
  br label %10

10:                                               ; preds = %.lr.ph, %evalNode.exit
  %.011 = phi ptr [ %5, %.lr.ph ], [ %11, %evalNode.exit ]
  %11 = tail call ptr @agnxtnode(ptr noundef %4, ptr noundef nonnull %.011) #24
  store ptr %.011, ptr %6, align 8, !tbaa !79
  %12 = load i64, ptr %7, align 8, !tbaa !92
  %.not25.i = icmp eq i64 %12, 0
  br i1 %.not25.i, label %evalNode.exit, label %.lr.ph.i

.lr.ph.i:                                         ; preds = %10, %25
  %.01924.i = phi i64 [ %26, %25 ], [ 0, %10 ]
  %13 = load ptr, ptr %8, align 8, !tbaa !93
  %14 = getelementptr inbounds nuw %struct.case_stmt, ptr %13, i64 %.01924.i
  %15 = load ptr, ptr %14, align 8, !tbaa !94
  %.not.i = icmp eq ptr %15, null
  br i1 %.not.i, label %.critedge.i, label %16

16:                                               ; preds = %.lr.ph.i
  %17 = tail call ptr @exeval(ptr noundef %1, ptr noundef nonnull %15, ptr noundef nonnull %0) #24
  %.not23.i = icmp eq ptr %17, null
  br i1 %.not23.i, label %25, label %.critedge.i

.critedge.i:                                      ; preds = %16, %.lr.ph.i
  %18 = getelementptr inbounds nuw i8, ptr %14, i64 8
  %19 = load ptr, ptr %18, align 8, !tbaa !96
  %.not22.i = icmp eq ptr %19, null
  br i1 %.not22.i, label %22, label %20

20:                                               ; preds = %.critedge.i
  %21 = tail call ptr @exeval(ptr noundef %1, ptr noundef nonnull %19, ptr noundef nonnull %0) #24
  br label %25

22:                                               ; preds = %.critedge.i
  %23 = load ptr, ptr %9, align 8, !tbaa !86
  %24 = tail call ptr @agsubnode(ptr noundef %23, ptr noundef nonnull %.011, i32 noundef 1) #24
  br label %25

25:                                               ; preds = %22, %20, %16
  %26 = add nuw i64 %.01924.i, 1
  %27 = load i64, ptr %7, align 8, !tbaa !92
  %28 = icmp ult i64 %26, %27
  br i1 %28, label %.lr.ph.i, label %evalNode.exit, !llvm.loop !97

evalNode.exit:                                    ; preds = %25, %10
  %.not = icmp eq ptr %11, null
  br i1 %.not, label %._crit_edge, label %10, !llvm.loop !141

._crit_edge:                                      ; preds = %evalNode.exit, %3
  ret void
}